target datalayout = "e-m:e-p270:32:32-p271:32:32-p272:64:64-i64:64-i128:128-f80:128-n8:16:32:64-S128"
target triple = "x86_64-pc-linux-gnu"

%struct.HuffmanTables = type { %struct.HuffmanTablesSegment, ptr }
%struct.HuffmanTablesSegment = type { ptr, ptr, ptr, i32 }
%struct.HuffmanCode = type { i8, i16 }

; Function Attrs: nounwind uwtable
define hidden i32 @VP8LBuildHuffmanTable(ptr noundef %0, i32 noundef %1, ptr noundef %2, i32 noundef %3) #0 {
  %5 = alloca i32, align 4
  %6 = alloca ptr, align 8
  %7 = alloca i32, align 4
  %8 = alloca ptr, align 8
  %9 = alloca i32, align 4
  %10 = alloca i32, align 4
  %11 = alloca i32, align 4
  %12 = alloca ptr, align 8
  %13 = alloca [512 x i16], align 16
  %14 = alloca ptr, align 8
  store ptr %0, ptr %6, align 8
  store i32 %1, ptr %7, align 4
  store ptr %2, ptr %8, align 8
  store i32 %3, ptr %9, align 4
  %15 = load i32, ptr %7, align 4
  %16 = load ptr, ptr %8, align 8
  %17 = load i32, ptr %9, align 4
  %18 = call i32 @BuildHuffmanTable(ptr noundef null, i32 noundef %15, ptr noundef %16, i32 noundef %17, ptr noundef null)
  store i32 %18, ptr %10, align 4
  %19 = load i32, ptr %10, align 4
  %20 = icmp eq i32 %19, 0
  br i1 %20, label %24, label %21

21:                                               ; preds = %4
  %22 = load ptr, ptr %6, align 8
  %23 = icmp eq ptr %22, null
  br i1 %23, label %24, label %26

24:                                               ; preds = %21, %4
  %25 = load i32, ptr %10, align 4
  store i32 %25, ptr %5, align 4
  br label %134

26:                                               ; preds = %21
  %27 = load ptr, ptr %6, align 8
  %28 = getelementptr inbounds %struct.HuffmanTables, ptr %27, i32 0, i32 1
  %29 = load ptr, ptr %28, align 8
  %30 = getelementptr inbounds %struct.HuffmanTablesSegment, ptr %29, i32 0, i32 1
  %31 = load ptr, ptr %30, align 8
  %32 = load i32, ptr %10, align 4
  %33 = sext i32 %32 to i64
  %34 = getelementptr inbounds %struct.HuffmanCode, ptr %31, i64 %33
  %35 = load ptr, ptr %6, align 8
  %36 = getelementptr inbounds %struct.HuffmanTables, ptr %35, i32 0, i32 1
  %37 = load ptr, ptr %36, align 8
  %38 = getelementptr inbounds %struct.HuffmanTablesSegment, ptr %37, i32 0, i32 0
  %39 = load ptr, ptr %38, align 8
  %40 = load ptr, ptr %6, align 8
  %41 = getelementptr inbounds %struct.HuffmanTables, ptr %40, i32 0, i32 1
  %42 = load ptr, ptr %41, align 8
  %43 = getelementptr inbounds %struct.HuffmanTablesSegment, ptr %42, i32 0, i32 3
  %44 = load i32, ptr %43, align 8
  %45 = sext i32 %44 to i64
  %46 = getelementptr inbounds %struct.HuffmanCode, ptr %39, i64 %45
  %47 = icmp uge ptr %34, %46
  br i1 %47, label %48, label %99

48:                                               ; preds = %26
  %49 = load ptr, ptr %6, align 8
  %50 = getelementptr inbounds %struct.HuffmanTables, ptr %49, i32 0, i32 1
  %51 = load ptr, ptr %50, align 8
  %52 = getelementptr inbounds %struct.HuffmanTablesSegment, ptr %51, i32 0, i32 3
  %53 = load i32, ptr %52, align 8
  store i32 %53, ptr %11, align 4
  %54 = call ptr @WebPSafeMalloc(i64 noundef 1, i64 noundef 32)
  store ptr %54, ptr %12, align 8
  %55 = load ptr, ptr %12, align 8
  %56 = icmp eq ptr %55, null
  br i1 %56, label %57, label %58

57:                                               ; preds = %48
  store i32 0, ptr %5, align 4
  br label %134

58:                                               ; preds = %48
  %59 = load i32, ptr %10, align 4
  %60 = load i32, ptr %11, align 4
  %61 = icmp sgt i32 %59, %60
  br i1 %61, label %62, label %64

62:                                               ; preds = %58
  %63 = load i32, ptr %10, align 4
  br label %66

64:                                               ; preds = %58
  %65 = load i32, ptr %11, align 4
  br label %66

66:                                               ; preds = %64, %62
  %67 = phi i32 [ %63, %62 ], [ %65, %64 ]
  %68 = load ptr, ptr %12, align 8
  %69 = getelementptr inbounds %struct.HuffmanTablesSegment, ptr %68, i32 0, i32 3
  store i32 %67, ptr %69, align 8
  %70 = load ptr, ptr %12, align 8
  %71 = getelementptr inbounds %struct.HuffmanTablesSegment, ptr %70, i32 0, i32 3
  %72 = load i32, ptr %71, align 8
  %73 = sext i32 %72 to i64
  %74 = call ptr @WebPSafeMalloc(i64 noundef %73, i64 noundef 4)
  %75 = load ptr, ptr %12, align 8
  %76 = getelementptr inbounds %struct.HuffmanTablesSegment, ptr %75, i32 0, i32 0
  store ptr %74, ptr %76, align 8
  %77 = load ptr, ptr %12, align 8
  %78 = getelementptr inbounds %struct.HuffmanTablesSegment, ptr %77, i32 0, i32 0
  %79 = load ptr, ptr %78, align 8
  %80 = icmp eq ptr %79, null
  br i1 %80, label %81, label %83

81:                                               ; preds = %66
  %82 = load ptr, ptr %12, align 8
  call void @WebPSafeFree(ptr noundef %82)
  store i32 0, ptr %5, align 4
  br label %134

83:                                               ; preds = %66
  %84 = load ptr, ptr %12, align 8
  %85 = getelementptr inbounds %struct.HuffmanTablesSegment, ptr %84, i32 0, i32 0
  %86 = load ptr, ptr %85, align 8
  %87 = load ptr, ptr %12, align 8
  %88 = getelementptr inbounds %struct.HuffmanTablesSegment, ptr %87, i32 0, i32 1
  store ptr %86, ptr %88, align 8
  %89 = load ptr, ptr %12, align 8
  %90 = getelementptr inbounds %struct.HuffmanTablesSegment, ptr %89, i32 0, i32 2
  store ptr null, ptr %90, align 8
  %91 = load ptr, ptr %12, align 8
  %92 = load ptr, ptr %6, align 8
  %93 = getelementptr inbounds %struct.HuffmanTables, ptr %92, i32 0, i32 1
  %94 = load ptr, ptr %93, align 8
  %95 = getelementptr inbounds %struct.HuffmanTablesSegment, ptr %94, i32 0, i32 2
  store ptr %91, ptr %95, align 8
  %96 = load ptr, ptr %12, align 8
  %97 = load ptr, ptr %6, align 8
  %98 = getelementptr inbounds %struct.HuffmanTables, ptr %97, i32 0, i32 1
  store ptr %96, ptr %98, align 8
  br label %99

99:                                               ; preds = %83, %26
  %100 = load i32, ptr %9, align 4
  %101 = icmp sle i32 %100, 512
  br i1 %101, label %102, label %113

102:                                              ; preds = %99
  %103 = load ptr, ptr %6, align 8
  %104 = getelementptr inbounds %struct.HuffmanTables, ptr %103, i32 0, i32 1
  %105 = load ptr, ptr %104, align 8
  %106 = getelementptr inbounds %struct.HuffmanTablesSegment, ptr %105, i32 0, i32 1
  %107 = load ptr, ptr %106, align 8
  %108 = load i32, ptr %7, align 4
  %109 = load ptr, ptr %8, align 8
  %110 = load i32, ptr %9, align 4
  %111 = getelementptr inbounds [512 x i16], ptr %13, i64 0, i64 0
  %112 = call i32 @BuildHuffmanTable(ptr noundef %107, i32 noundef %108, ptr noundef %109, i32 noundef %110, ptr noundef %111)
  br label %132

113:                                              ; preds = %99
  %114 = load i32, ptr %9, align 4
  %115 = sext i32 %114 to i64
  %116 = call ptr @WebPSafeMalloc(i64 noundef %115, i64 noundef 2)
  store ptr %116, ptr %14, align 8
  %117 = load ptr, ptr %14, align 8
  %118 = icmp eq ptr %117, null
  br i1 %118, label %119, label %120

119:                                              ; preds = %113
  store i32 0, ptr %5, align 4
  br label %134

120:                                              ; preds = %113
  %121 = load ptr, ptr %6, align 8
  %122 = getelementptr inbounds %struct.HuffmanTables, ptr %121, i32 0, i32 1
  %123 = load ptr, ptr %122, align 8
  %124 = getelementptr inbounds %struct.HuffmanTablesSegment, ptr %123, i32 0, i32 1
  %125 = load ptr, ptr %124, align 8
  %126 = load i32, ptr %7, align 4
  %127 = load ptr, ptr %8, align 8
  %128 = load i32, ptr %9, align 4
  %129 = load ptr, ptr %14, align 8
  %130 = call i32 @BuildHuffmanTable(ptr noundef %125, i32 noundef %126, ptr noundef %127, i32 noundef %128, ptr noundef %129)
  %131 = load ptr, ptr %14, align 8
  call void @WebPSafeFree(ptr noundef %131)
  br label %132

132:                                              ; preds = %120, %102
  %133 = load i32, ptr %10, align 4
  store i32 %133, ptr %5, align 4
  br label %134

134:                                              ; preds = %132, %119, %81, %57, %24
  %135 = load i32, ptr %5, align 4
  ret i32 %135
}