; Function Attrs: nounwind uwtable
define hidden i32 @VP8LBuildHuffmanTable(ptr noundef %0, i32 noundef %1, ptr nocapture noundef readonly %2, i32 noundef %3) local_unnamed_addr #0 {
  %5 = alloca [512 x i16], align 16
  %6 = tail call fastcc i32 @BuildHuffmanTable(ptr noundef null, i32 noundef %1, ptr noundef %2, i32 noundef %3, ptr noundef null)
  %7 = icmp eq i32 %6, 0
  %8 = icmp eq ptr %0, null
  %or.cond = or i1 %8, %7
  br i1 %or.cond, label %52, label %9

9:                                                ; preds = %4
  %10 = getelementptr inbounds i8, ptr %0, i64 32
  %11 = load ptr, ptr %10, align 8
  %12 = getelementptr inbounds i8, ptr %11, i64 8
  %13 = load ptr, ptr %12, align 8
  %14 = sext i32 %6 to i64
  %15 = getelementptr inbounds %struct.HuffmanCode, ptr %13, i64 %14
  %16 = load ptr, ptr %11, align 8
  %17 = getelementptr inbounds i8, ptr %11, i64 24
  %18 = load i32, ptr %17, align 8
  %19 = sext i32 %18 to i64
  %20 = getelementptr inbounds %struct.HuffmanCode, ptr %16, i64 %19
  %.not = icmp ult ptr %15, %20
  br i1 %.not, label %36, label %21

21:                                               ; preds = %9
  %22 = tail call ptr @WebPSafeMalloc(i64 noundef 1, i64 noundef 32) #5
  %23 = icmp eq ptr %22, null
  br i1 %23, label %52, label %24

24:                                               ; preds = %21
  %25 = tail call i32 @llvm.smax.i32(i32 %6, i32 %18)
  %26 = getelementptr inbounds i8, ptr %22, i64 24
  store i32 %25, ptr %26, align 8
  %27 = sext i32 %25 to i64
  %28 = tail call ptr @WebPSafeMalloc(i64 noundef %27, i64 noundef 4) #5
  store ptr %28, ptr %22, align 8
  %29 = icmp eq ptr %28, null
  br i1 %29, label %30, label %31

30:                                               ; preds = %24
  tail call void @WebPSafeFree(ptr noundef nonnull %22) #5
  br label %52

31:                                               ; preds = %24
  %32 = getelementptr inbounds i8, ptr %22, i64 8
  store ptr %28, ptr %32, align 8
  %33 = getelementptr inbounds i8, ptr %22, i64 16
  store ptr null, ptr %33, align 8
  %34 = load ptr, ptr %10, align 8
  %35 = getelementptr inbounds i8, ptr %34, i64 16
  store ptr %22, ptr %35, align 8
  store ptr %22, ptr %10, align 8
  br label %36

36:                                               ; preds = %31, %9
  %37 = phi ptr [ %22, %31 ], [ %11, %9 ]
  %38 = icmp slt i32 %3, 513
  br i1 %38, label %39, label %43

39:                                               ; preds = %36
  %40 = getelementptr inbounds i8, ptr %37, i64 8
  %41 = load ptr, ptr %40, align 8
  %42 = call fastcc i32 @BuildHuffmanTable(ptr noundef %41, i32 noundef %1, ptr noundef %2, i32 noundef %3, ptr noundef nonnull %5)
  br label %52

43:                                               ; preds = %36
  %44 = zext nneg i32 %3 to i64
  %45 = tail call ptr @WebPSafeMalloc(i64 noundef %44, i64 noundef 2) #5
  %46 = icmp eq ptr %45, null
  br i1 %46, label %52, label %47

47:                                               ; preds = %43
  %48 = load ptr, ptr %10, align 8
  %49 = getelementptr inbounds i8, ptr %48, i64 8
  %50 = load ptr, ptr %49, align 8
  %51 = tail call fastcc i32 @BuildHuffmanTable(ptr noundef %50, i32 noundef %1, ptr noundef %2, i32 noundef %3, ptr noundef nonnull %45)
  tail call void @WebPSafeFree(ptr noundef nonnull %45) #5
  br label %52

52:                                               ; preds = %39, %47, %43, %21, %4, %30
  %.0 = phi i32 [ 0, %30 ], [ %6, %4 ], [ 0, %21 ], [ 0, %43 ], [ %6, %47 ], [ %6, %39 ]
  ret i32 %.0
}